; Function Attrs: mustprogress uwtable
define noundef zeroext i1 @_ZN6google8protobuf25EncodedDescriptorDatabase14FindFileByNameERKNSt7__cxx1112basic_stringIcSt11char_traitsIcESaIcEEEPNS0_19FileDescriptorProtoE(ptr nocapture noundef nonnull readonly align 8 dereferenceable(40) %this, ptr noundef nonnull align 8 dereferenceable(32) %filename, ptr noundef %output) unnamed_addr #6 align 2 {
entry:
  %index_ = getelementptr inbounds i8, ptr %this, i64 8
  %0 = load ptr, ptr %index_, align 8
  %call3 = tail call { i64, ptr } @_ZNKSt7__cxx1112basic_stringIcSt11char_traitsIcESaIcEEcvSt17basic_string_viewIcS2_EEv(ptr noundef nonnull align 8 dereferenceable(32) %filename) #28
  %1 = extractvalue { i64, ptr } %call3, 0
  %2 = extractvalue { i64, ptr } %call3, 1
  %call4 = tail call { ptr, i32 } @_ZN6google8protobuf25EncodedDescriptorDatabase15DescriptorIndex8FindFileESt17basic_string_viewIcSt11char_traitsIcEE(ptr noundef nonnull align 8 dereferenceable(192) %0, i64 %1, ptr %2)
  %3 = extractvalue { ptr, i32 } %call4, 0
  %cmp.i = icmp eq ptr %3, null
  br i1 %cmp.i, label %_ZN6google8protobuf25EncodedDescriptorDatabase10MaybeParseESt4pairIPKviEPNS0_19FileDescriptorProtoE.exit, label %if.end.i

if.end.i:                                         ; preds = %entry
  %4 = extractvalue { ptr, i32 } %call4, 1
  %conv.i = sext i32 %4 to i64
  %call.i = tail call noundef zeroext i1 @_ZN6google8protobuf8internal17ParseNoReflectionESt17basic_string_viewIcSt11char_traitsIcEERNS0_11MessageLiteE(i64 %conv.i, ptr nonnull %3, ptr noundef nonnull align 8 dereferenceable(16) %output)
  br label %_ZN6google8protobuf25EncodedDescriptorDatabase10MaybeParseESt4pairIPKviEPNS0_19FileDescriptorProtoE.exit

_ZN6google8protobuf25EncodedDescriptorDatabase10MaybeParseESt4pairIPKviEPNS0_19FileDescriptorProtoE.exit: ; preds = %entry, %if.end.i
  %retval.0.i = phi i1 [ %call.i, %if.end.i ], [ false, %entry ]
  ret i1 %retval.0.i
}